; Function Attrs: mustprogress uwtable
define noundef zeroext i1 @_ZNK6colvar19periodic_boundariesERK11colvarvalueS2_(ptr nocapture noundef nonnull readonly align 8 dereferenceable(4624) %0, ptr noundef nonnull align 8 dereferenceable(168) %1, ptr noundef nonnull align 8 dereferenceable(168) %2) local_unnamed_addr #2 align 2 {
  %4 = getelementptr inbounds i8, ptr %0, i64 3224
  %5 = load double, ptr %4, align 8
  %6 = fcmp ogt double %5, 0.000000e+00
  br i1 %6, label %7, label %65

7:                                                ; preds = %3
  %8 = getelementptr inbounds i8, ptr %0, i64 368
  %9 = load ptr, ptr %8, align 8
  %10 = getelementptr inbounds i8, ptr %9, i64 897
  %11 = load i8, ptr %10, align 1
  %12 = trunc i8 %11 to i1
  br i1 %12, label %17, label %13

13:                                               ; preds = %7
  %14 = getelementptr inbounds i8, ptr %9, i64 929
  %15 = load i8, ptr %14, align 1
  %16 = trunc i8 %15 to i1
  br i1 %16, label %17, label %46

17:                                               ; preds = %13, %7
  %18 = getelementptr inbounds i8, ptr %9, i64 961
  %19 = load i8, ptr %18, align 1
  %20 = trunc i8 %19 to i1
  br i1 %20, label %21, label %46

21:                                               ; preds = %17
  %22 = getelementptr inbounds i8, ptr %9, i64 1025
  %23 = load i8, ptr %22, align 1
  %24 = trunc i8 %23 to i1
  br i1 %24, label %25, label %46

25:                                               ; preds = %21
  %26 = getelementptr inbounds i8, ptr %1, i64 8
  %27 = load double, ptr %26, align 8
  %28 = getelementptr inbounds i8, ptr %2, i64 8
  %29 = load double, ptr %28, align 8
  %30 = fsub double %27, %29
  %31 = getelementptr inbounds i8, ptr %0, i64 3232
  %32 = load double, ptr %31, align 8
  %33 = fmul double %5, 5.000000e-01
  %34 = fsub double %32, %33
  %35 = fcmp olt double %30, %34
  br i1 %35, label %36, label %38

36:                                               ; preds = %25
  %37 = fadd double %5, %30
  br label %43

38:                                               ; preds = %25
  %39 = fadd double %33, %32
  %40 = fcmp ogt double %30, %39
  br i1 %40, label %41, label %43

41:                                               ; preds = %38
  %42 = fsub double %30, %5
  br label %43

43:                                               ; preds = %41, %38, %36
  %44 = phi double [ %37, %36 ], [ %42, %41 ], [ %30, %38 ]
  %45 = fmul double %44, %44
  br label %_ZNK6colvar5dist2ERK11colvarvalueS2_.exit

46:                                               ; preds = %21, %17, %13
  %47 = getelementptr inbounds i8, ptr %9, i64 1089
  %48 = load i8, ptr %47, align 1
  %49 = trunc i8 %48 to i1
  br i1 %49, label %50, label %58

50:                                               ; preds = %46
  %51 = getelementptr inbounds i8, ptr %0, i64 4432
  %52 = load ptr, ptr %51, align 8
  %53 = load ptr, ptr %52, align 8
  %54 = load ptr, ptr %53, align 8
  %55 = getelementptr inbounds i8, ptr %54, i64 176
  %56 = load ptr, ptr %55, align 8
  %57 = tail call noundef double %56(ptr noundef nonnull align 8 dereferenceable(1648) %53, ptr noundef nonnull align 8 dereferenceable(168) %1, ptr noundef nonnull align 8 dereferenceable(168) %2)
  br label %_ZNK6colvar5dist2ERK11colvarvalueS2_.exit

58:                                               ; preds = %46
  %59 = tail call noundef double @_ZNK11colvarvalue5dist2ERKS_(ptr noundef nonnull align 8 dereferenceable(168) %1, ptr noundef nonnull align 8 dereferenceable(168) %2)
  br label %_ZNK6colvar5dist2ERK11colvarvalueS2_.exit

_ZNK6colvar5dist2ERK11colvarvalueS2_.exit:        ; preds = %43, %50, %58
  %.0.i = phi double [ %45, %43 ], [ %57, %50 ], [ %59, %58 ]
  %60 = tail call noundef double @sqrt(double noundef %.0.i) #23
  %61 = getelementptr inbounds i8, ptr %0, i64 472
  %62 = load double, ptr %61, align 8
  %63 = fdiv double %60, %62
  %64 = fcmp olt double %63, 1.000000e-10
  br i1 %64, label %66, label %65

65:                                               ; preds = %_ZNK6colvar5dist2ERK11colvarvalueS2_.exit, %3
  br label %66

66:                                               ; preds = %_ZNK6colvar5dist2ERK11colvarvalueS2_.exit, %65
  %.0 = phi i1 [ false, %65 ], [ true, %_ZNK6colvar5dist2ERK11colvarvalueS2_.exit ]
  ret i1 %.0
}